; Function Attrs: mustprogress uwtable
define dso_local void @_ZN4Luau7CodeGen3X6418AssemblyBuilderX643jmpERNS0_5LabelE(ptr noundef nonnull align 8 dereferenceable(252) %0, ptr noundef nonnull align 4 captures(none) dereferenceable(8) %1) local_unnamed_addr #0 align 2 {
  %3 = getelementptr inbounds nuw i8, ptr %0, i64 232
  %4 = load ptr, ptr %3, align 8, !tbaa !51
  %5 = getelementptr inbounds nuw i8, ptr %4, i64 1
  store ptr %5, ptr %3, align 8, !tbaa !51
  store i8 -23, ptr %4, align 1, !tbaa !13
  tail call void @_ZN4Luau7CodeGen3X6418AssemblyBuilderX6410placeLabelERNS0_5LabelE(ptr noundef nonnull align 8 dereferenceable(252) %0, ptr noundef nonnull align 4 dereferenceable(8) %1)
  %6 = getelementptr inbounds nuw i8, ptr %0, i64 80
  %7 = load i8, ptr %6, align 8, !tbaa !14, !range !61, !noundef !62
  %8 = trunc nuw i8 %7 to i1
  br i1 %8, label %9, label %10

9:                                                ; preds = %2
  %.sroa.0.0.copyload = load i64, ptr %1, align 4
  tail call void @_ZN4Luau7CodeGen3X6418AssemblyBuilderX643logEPKcNS0_5LabelE(ptr noundef nonnull align 8 dereferenceable(252) %0, ptr noundef nonnull @.str.30, i64 %.sroa.0.0.copyload)
  br label %10

10:                                               ; preds = %9, %2
  %11 = getelementptr inbounds nuw i8, ptr %0, i64 248
  %12 = load i32, ptr %11, align 8, !tbaa !63
  %13 = add i32 %12, 1
  store i32 %13, ptr %11, align 8, !tbaa !63
  %14 = getelementptr inbounds nuw i8, ptr %0, i64 240
  %15 = load ptr, ptr %14, align 8, !tbaa !52
  %16 = load ptr, ptr %3, align 8, !tbaa !51
  %17 = ptrtoint ptr %15 to i64
  %18 = ptrtoint ptr %16 to i64
  %19 = sub i64 %17, %18
  %20 = and i64 %19, 4294967280
  %21 = icmp eq i64 %20, 0
  br i1 %21, label %22, label %_ZN4Luau7CodeGen3X6418AssemblyBuilderX646commitEv.exit

22:                                               ; preds = %10
  tail call void @_ZN4Luau7CodeGen3X6418AssemblyBuilderX646extendEv(ptr noundef nonnull align 8 dereferenceable(252) %0)
  br label %_ZN4Luau7CodeGen3X6418AssemblyBuilderX646commitEv.exit

_ZN4Luau7CodeGen3X6418AssemblyBuilderX646commitEv.exit: ; preds = %10, %22
  ret void
}